target datalayout = "e-m:e-p270:32:32-p271:32:32-p272:64:64-i64:64-i128:128-f80:128-n8:16:32:64-S128"
target triple = "x86_64-pc-linux-gnu"

%struct.stbir__sampler = type { ptr, ptr, ptr, ptr, %struct.stbir__scale_info, float, i32, ptr, ptr, i32, i32, i32, i32, i32, i32, i32, %struct.stbir__filter_extent_info, i32, i32, i32, i32, i32 }
%struct.stbir__scale_info = type { i32, i32, float, float, float, i32, i32, i32 }
%struct.stbir__filter_extent_info = type { i32, i32, i32 }
%struct.stbir__contributors = type { i32, i32 }
%struct.stbir__extents = type { %struct.stbir__contributors, [2 x i32], [2 x %struct.stbir__span] }
%struct.stbir__span = type { i32, i32, i32 }
%struct.stbir__info = type { %struct.stbir__sampler, %struct.stbir__sampler, ptr, ptr, i32, i32, i32, i32, i32, i32, ptr, ptr, ptr, %struct.stbir__extents, ptr, ptr, ptr, ptr, ptr, ptr, ptr, i32, i32, i32, i32, i32, i32, i32, i32, i32, i32, i64 }
%struct.STBIR_RESIZE = type { ptr, ptr, i32, i32, double, double, double, double, ptr, ptr, i32, i32, i32, i32, i32, i32, ptr, i32, i32, i32, i32, i32, i32, i32, i32, i32, i32, i32, i32, i32, i32, ptr, ptr, ptr, ptr, ptr }

; Function Attrs: nounwind uwtable
define void @stbir__free_internal_mem(ptr noundef %0) #3 {
  %2 = alloca ptr, align 8
  %3 = alloca ptr, align 8
  store ptr %0, ptr %2, align 8, !tbaa !519
  %4 = load ptr, ptr %2, align 8, !tbaa !519
  %5 = icmp ne ptr %4, null
  br i1 %5, label %6, label %19

6:                                                ; preds = %1
  %7 = load ptr, ptr %2, align 8, !tbaa !519
  %8 = getelementptr inbounds nuw %struct.stbir__info, ptr %7, i32 0, i32 14
  %9 = load ptr, ptr %8, align 8, !tbaa !1041
  %10 = icmp ne ptr %9, null
  br i1 %10, label %11, label %18

11:                                               ; preds = %6
  call void @llvm.lifetime.start.p0(i64 8, ptr %3) #12
  %12 = load ptr, ptr %2, align 8, !tbaa !519
  %13 = getelementptr inbounds nuw %struct.stbir__info, ptr %12, i32 0, i32 14
  %14 = load ptr, ptr %13, align 8, !tbaa !1041
  store ptr %14, ptr %3, align 8, !tbaa !3
  %15 = load ptr, ptr %2, align 8, !tbaa !519
  %16 = getelementptr inbounds nuw %struct.stbir__info, ptr %15, i32 0, i32 14
  store ptr null, ptr %16, align 8, !tbaa !1041
  %17 = load ptr, ptr %3, align 8, !tbaa !3
  call void @free(ptr noundef %17) #12
  call void @llvm.lifetime.end.p0(i64 8, ptr %3) #12
  br label %18

18:                                               ; preds = %11, %6
  br label %19

19:                                               ; preds = %18, %1
  ret void
}

; Function Attrs: nounwind uwtable
define void @stbir_free_samplers(ptr noundef %0) #3 {
  %2 = alloca ptr, align 8
  store ptr %0, ptr %2, align 8, !tbaa !1068
  %3 = load ptr, ptr %2, align 8, !tbaa !1068
  %4 = getelementptr inbounds nuw %struct.STBIR_RESIZE, ptr %3, i32 0, i32 35
  %5 = load ptr, ptr %4, align 8, !tbaa !1082
  %6 = icmp ne ptr %5, null
  br i1 %6, label %7, label %15

7:                                                ; preds = %1
  %8 = load ptr, ptr %2, align 8, !tbaa !1068
  %9 = getelementptr inbounds nuw %struct.STBIR_RESIZE, ptr %8, i32 0, i32 35
  %10 = load ptr, ptr %9, align 8, !tbaa !1082
  call void @stbir__free_internal_mem(ptr noundef %10)
  %11 = load ptr, ptr %2, align 8, !tbaa !1068
  %12 = getelementptr inbounds nuw %struct.STBIR_RESIZE, ptr %11, i32 0, i32 35
  store ptr null, ptr %12, align 8, !tbaa !1082
  %13 = load ptr, ptr %2, align 8, !tbaa !1068
  %14 = getelementptr inbounds nuw %struct.STBIR_RESIZE, ptr %13, i32 0, i32 22
  store i32 0, ptr %14, align 4, !tbaa !1083
  br label %15

15:                                               ; preds = %7, %1
  ret void
}