; Function Attrs: mustprogress nounwind willreturn uwtable
define void @stbir_free_samplers(ptr noundef captures(none) %0) local_unnamed_addr #10 {
  %2 = getelementptr inbounds nuw i8, ptr %0, i64 192
  %3 = load ptr, ptr %2, align 8, !tbaa !1005
  %.not = icmp eq ptr %3, null
  br i1 %.not, label %9, label %4

4:                                                ; preds = %1
  %5 = getelementptr inbounds nuw i8, ptr %3, i64 408
  %6 = load ptr, ptr %5, align 8, !tbaa !950
  %.not6.i = icmp eq ptr %6, null
  br i1 %.not6.i, label %stbir__free_internal_mem.exit, label %7

7:                                                ; preds = %4
  store ptr null, ptr %5, align 8, !tbaa !950
  tail call void @free(ptr noundef nonnull %6) #24
  br label %stbir__free_internal_mem.exit

stbir__free_internal_mem.exit:                    ; preds = %4, %7
  store ptr null, ptr %2, align 8, !tbaa !1005
  %8 = getelementptr inbounds nuw i8, ptr %0, i64 124
  store i32 0, ptr %8, align 4, !tbaa !990
  br label %9

9:                                                ; preds = %stbir__free_internal_mem.exit, %1
  ret void
}